ARM GAS  C:\Users\usuario\AppData\Local\Temp\cc2BlVAY.s 			page 1


   1              		.syntax unified
   2              		.cpu cortex-m3
   3              		.fpu softvfp
   4              		.eabi_attribute 20, 1
   5              		.eabi_attribute 21, 1
   6              		.eabi_attribute 23, 3
   7              		.eabi_attribute 24, 1
   8              		.eabi_attribute 25, 1
   9              		.eabi_attribute 26, 1
  10              		.eabi_attribute 30, 1
  11              		.eabi_attribute 34, 1
  12              		.eabi_attribute 18, 4
  13              		.thumb
  14              		.syntax unified
  15              		.file	"main.c"
  16              		.text
  17              	.Ltext0:
  18              		.cfi_sections	.debug_frame
  19              		.section	.text.InterruptRX,"ax",%progbits
  20              		.align	2
  21              		.global	InterruptRX
  22              		.thumb
  23              		.thumb_func
  24              		.type	InterruptRX, %function
  25              	InterruptRX:
  26              	.LFB63:
  27              		.file 1 "main.c"
   1:main.c        **** /* ========================================
   2:main.c        ****  *
   3:main.c        ****  * Copyright YOUR COMPANY, THE YEAR
   4:main.c        ****  * All Rights Reserved
   5:main.c        ****  * UNPUBLISHED, LICENSED SOFTWARE.
   6:main.c        ****  *
   7:main.c        ****  * CONFIDENTIAL AND PROPRIETARY INFORMATION
   8:main.c        ****  * WHICH IS THE PROPERTY OF your company.
   9:main.c        ****  *
  10:main.c        ****  * ========================================
  11:main.c        **** */
  12:main.c        **** #include "project.h"
  13:main.c        **** #include "LiquidCrystal_I2C.h"
  14:main.c        **** 
  15:main.c        **** uint8_t Addr = 0x27;/*Direccion del modulo I2C es 0x27 si usa el integrado PCF8574 칩 03xF si usa e
  16:main.c        ****                     ver Datasheet del modulo*/
  17:main.c        **** uint8_t fila = 0, columna = 0;
  18:main.c        **** char dato;
  19:main.c        **** 
  20:main.c        **** 
  21:main.c        **** CY_ISR(InterruptRX) /*Genero la rutina de interrupcion cuyo nombre de vector de interrupcion es Int
  22:main.c        **** {
  28              		.loc 1 22 0
  29              		.cfi_startproc
  30              		@ args = 0, pretend = 0, frame = 0
  31              		@ frame_needed = 0, uses_anonymous_args = 0
  32 0000 38B5     		push	{r3, r4, r5, lr}
  33              		.cfi_def_cfa_offset 16
  34              		.cfi_offset 3, -16
  35              		.cfi_offset 4, -12
ARM GAS  C:\Users\usuario\AppData\Local\Temp\cc2BlVAY.s 			page 2


  36              		.cfi_offset 5, -8
  37              		.cfi_offset 14, -4
  23:main.c        ****     if((fila == 0)&&(columna == 16))
  38              		.loc 1 23 0
  39 0002 154B     		ldr	r3, .L5
  40 0004 1B78     		ldrb	r3, [r3]	@ zero_extendqisi2
  41 0006 43B9     		cbnz	r3, .L2
  42              		.loc 1 23 0 is_stmt 0 discriminator 1
  43 0008 134B     		ldr	r3, .L5
  44 000a 5B78     		ldrb	r3, [r3, #1]	@ zero_extendqisi2
  45 000c 102B     		cmp	r3, #16
  46 000e 04D1     		bne	.L2
  24:main.c        ****     {
  25:main.c        ****         fila = 1;   /*al finalizar la primera fila, inica la segunda fila */
  47              		.loc 1 25 0 is_stmt 1
  48 0010 114B     		ldr	r3, .L5
  49 0012 0122     		movs	r2, #1
  50 0014 1A70     		strb	r2, [r3]
  26:main.c        ****         columna = 0;
  51              		.loc 1 26 0
  52 0016 0022     		movs	r2, #0
  53 0018 5A70     		strb	r2, [r3, #1]
  54              	.L2:
  27:main.c        ****     }
  28:main.c        ****     if((fila == 1)&&(columna == 16))
  55              		.loc 1 28 0
  56 001a 0F4B     		ldr	r3, .L5
  57 001c 1B78     		ldrb	r3, [r3]	@ zero_extendqisi2
  58 001e 012B     		cmp	r3, #1
  59 0020 09D1     		bne	.L3
  60              		.loc 1 28 0 is_stmt 0 discriminator 1
  61 0022 0D4B     		ldr	r3, .L5
  62 0024 5B78     		ldrb	r3, [r3, #1]	@ zero_extendqisi2
  63 0026 102B     		cmp	r3, #16
  64 0028 05D1     		bne	.L3
  29:main.c        ****     {
  30:main.c        ****         fila = 0;   /*al finalizar en la segunda fila, y ultima columna regresa al inicio */
  65              		.loc 1 30 0 is_stmt 1
  66 002a 0B4B     		ldr	r3, .L5
  67 002c 0022     		movs	r2, #0
  68 002e 1A70     		strb	r2, [r3]
  31:main.c        ****         columna = 0;
  69              		.loc 1 31 0
  70 0030 5A70     		strb	r2, [r3, #1]
  32:main.c        ****         clearDisplay();    /*funcion de la libreria LiquidCrystal_I2C.h*/
  71              		.loc 1 32 0
  72 0032 FFF7FEFF 		bl	clearDisplay
  73              	.LVL0:
  74              	.L3:
  33:main.c        ****     }
  34:main.c        ****     dato = UART_GetChar(); /*Toma el dato recibido por la UART desde el modulo Bluetooth y lo guard
  75              		.loc 1 34 0
  76 0036 FFF7FEFF 		bl	UART_GetChar
  77              	.LVL1:
  78 003a 084D     		ldr	r5, .L5+4
  79 003c 2870     		strb	r0, [r5]
  35:main.c        ****     setCursor(columna, fila); /*funcion de la libreria LiquidCrystal_I2C.h*/
ARM GAS  C:\Users\usuario\AppData\Local\Temp\cc2BlVAY.s 			page 3


  80              		.loc 1 35 0
  81 003e 064C     		ldr	r4, .L5
  82 0040 2178     		ldrb	r1, [r4]	@ zero_extendqisi2
  83 0042 6078     		ldrb	r0, [r4, #1]	@ zero_extendqisi2
  84 0044 FFF7FEFF 		bl	setCursor
  85              	.LVL2:
  36:main.c        ****     LCD_printChar(dato); /*funcion de la libreria LiquidCrystal_I2C.h: imprime el dato recibido en 
  86              		.loc 1 36 0
  87 0048 2878     		ldrb	r0, [r5]	@ zero_extendqisi2
  88 004a FFF7FEFF 		bl	LCD_printChar
  89              	.LVL3:
  37:main.c        ****     columna = columna + 1;
  90              		.loc 1 37 0
  91 004e 6378     		ldrb	r3, [r4, #1]	@ zero_extendqisi2
  92 0050 0133     		adds	r3, r3, #1
  93 0052 6370     		strb	r3, [r4, #1]
  94 0054 38BD     		pop	{r3, r4, r5, pc}
  95              	.L6:
  96 0056 00BF     		.align	2
  97              	.L5:
  98 0058 00000000 		.word	.LANCHOR0
  99 005c 00000000 		.word	dato
 100              		.cfi_endproc
 101              	.LFE63:
 102              		.size	InterruptRX, .-InterruptRX
 103              		.section	.text.main,"ax",%progbits
 104              		.align	2
 105              		.global	main
 106              		.thumb
 107              		.thumb_func
 108              		.type	main, %function
 109              	main:
 110              	.LFB64:
  38:main.c        **** }
  39:main.c        **** 
  40:main.c        **** int main(void)
  41:main.c        **** {
 111              		.loc 1 41 0
 112              		.cfi_startproc
 113              		@ Volatile: function does not return.
 114              		@ args = 0, pretend = 0, frame = 0
 115              		@ frame_needed = 0, uses_anonymous_args = 0
 116 0000 08B5     		push	{r3, lr}
 117              		.cfi_def_cfa_offset 8
 118              		.cfi_offset 3, -8
 119              		.cfi_offset 14, -4
  42:main.c        ****     CyGlobalIntEnable; /* Enable global interrupts. */
 120              		.loc 1 42 0
 121              		.syntax unified
 122              	@ 42 "main.c" 1
 123 0002 62B6     		CPSIE   i
 124              	@ 0 "" 2
  43:main.c        **** 
  44:main.c        ****     /* Place your initialization/startup code here (e.g. MyInst_Start()) */
  45:main.c        ****     LiquidCrystal_I2C_init(Addr, 16, 2, 0); /*Inicializa configuracion del modulo LCD para la API L
 125              		.loc 1 45 0
 126              		.thumb
ARM GAS  C:\Users\usuario\AppData\Local\Temp\cc2BlVAY.s 			page 4


 127              		.syntax unified
 128 0004 0023     		movs	r3, #0
 129 0006 0222     		movs	r2, #2
 130 0008 1021     		movs	r1, #16
 131 000a 0948     		ldr	r0, .L10
 132 000c 0078     		ldrb	r0, [r0]	@ zero_extendqisi2
 133 000e FFF7FEFF 		bl	LiquidCrystal_I2C_init
 134              	.LVL4:
  46:main.c        ****                                             Par치metros de la funcion: Direccion, Columnas, Filas, 
  47:main.c        ****     Clock_Start();
 135              		.loc 1 47 0
 136 0012 FFF7FEFF 		bl	Clock_Start
 137              	.LVL5:
  48:main.c        ****     PWM_Start();
 138              		.loc 1 48 0
 139 0016 FFF7FEFF 		bl	PWM_Start
 140              	.LVL6:
  49:main.c        ****     I2C_Start();
 141              		.loc 1 49 0
 142 001a FFF7FEFF 		bl	I2C_Start
 143              	.LVL7:
  50:main.c        ****     UART_Start();
 144              		.loc 1 50 0
 145 001e FFF7FEFF 		bl	UART_Start
 146              	.LVL8:
  51:main.c        ****     RXisr_StartEx(InterruptRX); /*Configura la interrupci칩n para que funcione y establece la direc
 147              		.loc 1 51 0
 148 0022 0448     		ldr	r0, .L10+4
 149 0024 FFF7FEFF 		bl	RXisr_StartEx
 150              	.LVL9:
  52:main.c        ****                                 como el vector ISR para la interrupci칩n: Nombre del vector de inte
  53:main.c        ****                                 InterruptRX como*/
  54:main.c        ****     begin(); /*inicializa el LCD con el modulo I2C */
 151              		.loc 1 54 0
 152 0028 FFF7FEFF 		bl	begin
 153              	.LVL10:
 154              	.L8:
 155 002c FEE7     		b	.L8
 156              	.L11:
 157 002e 00BF     		.align	2
 158              	.L10:
 159 0030 00000000 		.word	.LANCHOR1
 160 0034 00000000 		.word	InterruptRX
 161              		.cfi_endproc
 162              	.LFE64:
 163              		.size	main, .-main
 164              		.comm	dato,1,1
 165              		.global	columna
 166              		.global	fila
 167              		.global	Addr
 168              		.data
 169              		.set	.LANCHOR1,. + 0
 170              		.type	Addr, %object
 171              		.size	Addr, 1
 172              	Addr:
 173 0000 27       		.byte	39
 174              		.bss
ARM GAS  C:\Users\usuario\AppData\Local\Temp\cc2BlVAY.s 			page 5


 175              		.set	.LANCHOR0,. + 0
 176              		.type	fila, %object
 177              		.size	fila, 1
 178              	fila:
 179 0000 00       		.space	1
 180              		.type	columna, %object
 181              		.size	columna, 1
 182              	columna:
 183 0001 00       		.space	1
 184              		.text
 185              	.Letext0:
 186              		.file 2 "c:\\program files (x86)\\cypress\\psoc creator\\4.4\\psoc creator\\import\\gnu\\arm\\5.4.
 187              		.file 3 "c:\\program files (x86)\\cypress\\psoc creator\\4.4\\psoc creator\\import\\gnu\\arm\\5.4.
 188              		.file 4 "Generated_Source\\PSoC5/core_cm3.h"
 189              		.file 5 "LiquidCrystal_I2C.h"
 190              		.file 6 "Generated_Source\\PSoC5/UART.h"
 191              		.file 7 "Generated_Source\\PSoC5/Clock.h"
 192              		.file 8 "Generated_Source\\PSoC5/PWM.h"
 193              		.file 9 "Generated_Source\\PSoC5/I2C.h"
 194              		.file 10 "Generated_Source\\PSoC5/RXisr.h"